target datalayout = "e-m:e-p270:32:32-p271:32:32-p272:64:64-i64:64-i128:128-f80:128-n8:16:32:64-S128"
target triple = "x86_64-pc-linux-gnu"

%struct.aeEventLoop = type { i32, i32, i64, i32, ptr, ptr, ptr, i32, ptr, ptr, ptr, i32, [2 x ptr] }
%struct.aeTimeEvent = type { i64, i64, ptr, ptr, ptr, ptr, ptr, i32 }

; Function Attrs: nounwind uwtable
define dso_local i32 @aeDeleteTimeEvent(ptr noundef %0, i64 noundef %1) #0 {
  %3 = alloca i32, align 4
  %4 = alloca ptr, align 8
  %5 = alloca i64, align 8
  %6 = alloca ptr, align 8
  %7 = alloca i32, align 4
  store ptr %0, ptr %4, align 8, !tbaa !9
  store i64 %1, ptr %5, align 8, !tbaa !56
  call void @llvm.lifetime.start.p0(i64 8, ptr %6) #10
  %8 = load ptr, ptr %4, align 8, !tbaa !9
  %9 = getelementptr inbounds nuw %struct.aeEventLoop, ptr %8, i32 0, i32 6
  %10 = load ptr, ptr %9, align 8, !tbaa !21
  store ptr %10, ptr %6, align 8, !tbaa !39
  br label %11

11:                                               ; preds = %23, %2
  %12 = load ptr, ptr %6, align 8, !tbaa !39
  %13 = icmp ne ptr %12, null
  br i1 %13, label %14, label %27

14:                                               ; preds = %11
  %15 = load ptr, ptr %6, align 8, !tbaa !39
  %16 = getelementptr inbounds nuw %struct.aeTimeEvent, ptr %15, i32 0, i32 0
  %17 = load i64, ptr %16, align 8, !tbaa !57
  %18 = load i64, ptr %5, align 8, !tbaa !56
  %19 = icmp eq i64 %17, %18
  br i1 %19, label %20, label %23

20:                                               ; preds = %14
  %21 = load ptr, ptr %6, align 8, !tbaa !39
  %22 = getelementptr inbounds nuw %struct.aeTimeEvent, ptr %21, i32 0, i32 0
  store i64 -1, ptr %22, align 8, !tbaa !57
  store i32 0, ptr %3, align 4
  store i32 1, ptr %7, align 4
  br label %28

23:                                               ; preds = %14
  %24 = load ptr, ptr %6, align 8, !tbaa !39
  %25 = getelementptr inbounds nuw %struct.aeTimeEvent, ptr %24, i32 0, i32 6
  %26 = load ptr, ptr %25, align 8, !tbaa !40
  store ptr %26, ptr %6, align 8, !tbaa !39
  br label %11, !llvm.loop !62

27:                                               ; preds = %11
  store i32 -1, ptr %3, align 4
  store i32 1, ptr %7, align 4
  br label %28

28:                                               ; preds = %27, %20
  call void @llvm.lifetime.end.p0(i64 8, ptr %6) #10
  %29 = load i32, ptr %3, align 4
  ret i32 %29
}