; Function Attrs: nofree norecurse nosync nounwind memory(readwrite, inaccessiblemem: none) uwtable
define dso_local range(i32 -1, 1) i32 @aeDeleteTimeEvent(ptr noundef readonly captures(none) %0, i64 noundef %1) local_unnamed_addr #11 {
  %3 = getelementptr inbounds nuw i8, ptr %0, i64 40
  %.08 = load ptr, ptr %3, align 8, !tbaa !54
  %.not9 = icmp eq ptr %.08, null
  br i1 %.not9, label %.loopexit, label %.lr.ph

.lr.ph:                                           ; preds = %2, %7
  %.010 = phi ptr [ %.0, %7 ], [ %.08, %2 ]
  %4 = load i64, ptr %.010, align 8, !tbaa !48
  %5 = icmp eq i64 %4, %1
  br i1 %5, label %6, label %7

6:                                                ; preds = %.lr.ph
  store i64 -1, ptr %.010, align 8, !tbaa !48
  br label %.loopexit

7:                                                ; preds = %.lr.ph
  %8 = getelementptr inbounds nuw i8, ptr %.010, i64 48
  %.0 = load ptr, ptr %8, align 8, !tbaa !54
  %.not = icmp eq ptr %.0, null
  br i1 %.not, label %.loopexit, label %.lr.ph, !llvm.loop !55

.loopexit:                                        ; preds = %7, %2, %6
  %.06 = phi i32 [ 0, %6 ], [ -1, %2 ], [ -1, %7 ]
  ret i32 %.06
}